; Function Attrs: nounwind uwtable
define dso_local void @_ZThn56_NK4node4quic7Session27CollectSessionTicketAppDataEPNS0_13SessionTicket7AppDataE(ptr nocapture noundef readonly %this, ptr noundef %app_data) unnamed_addr #13 align 2 {
entry:
  %application_.i = getelementptr inbounds i8, ptr %this, i64 2080
  %0 = load ptr, ptr %application_.i, align 8
  %vtable.i = load ptr, ptr %0, align 8
  %vfn.i = getelementptr inbounds i8, ptr %vtable.i, i64 128
  %1 = load ptr, ptr %vfn.i, align 8
  tail call void %1(ptr noundef nonnull align 8 dereferenceable(16) %0, ptr noundef %app_data) #28
  ret void
}